target datalayout = "e-m:e-p270:32:32-p271:32:32-p272:64:64-i64:64-i128:128-f80:128-n8:16:32:64-S128"
target triple = "x86_64-pc-linux-gnu"

%struct.request_t = type { i32, ptr, ptr, ptr, ptr, i32, i8, i32, ptr, ptr, i64, i64, ptr, ptr, ptr }
%struct.http_parser = type { i32, i32, i64, i16, i16, i32, ptr }

; Function Attrs: nounwind uwtable
define internal i32 @_on_header_field(ptr noundef %0, ptr noundef %1, i64 noundef %2) #0 {
  %4 = alloca ptr, align 8
  %5 = alloca ptr, align 8
  %6 = alloca i64, align 8
  %7 = alloca ptr, align 8
  store ptr %0, ptr %4, align 8
  store ptr %1, ptr %5, align 8
  store i64 %2, ptr %6, align 8
  call void @llvm.lifetime.start.p0(i64 8, ptr %7) #8
  %8 = load ptr, ptr %4, align 8
  %9 = getelementptr inbounds nuw %struct.http_parser, ptr %8, i32 0, i32 6
  %10 = load ptr, ptr %9, align 8
  store ptr %10, ptr %7, align 8
  %11 = load ptr, ptr %7, align 8
  %12 = getelementptr inbounds nuw %struct.request_t, ptr %11, i32 0, i32 4
  call void @slurm_xfree(ptr noundef %12)
  %13 = load ptr, ptr %5, align 8
  %14 = load i64, ptr %6, align 8
  %15 = call ptr @xstrndup(ptr noundef %13, i64 noundef %14)
  %16 = load ptr, ptr %7, align 8
  %17 = getelementptr inbounds nuw %struct.request_t, ptr %16, i32 0, i32 4
  store ptr %15, ptr %17, align 8
  call void @llvm.lifetime.end.p0(i64 8, ptr %7) #8
  ret i32 0
}