; Function Attrs: nounwind uwtable
define internal noundef i32 @_on_header_field(ptr noundef readonly captures(none) %0, ptr noundef %1, i64 noundef %2) #0 {
  %4 = getelementptr inbounds nuw i8, ptr %0, i64 24
  %5 = load ptr, ptr %4, align 8
  %6 = getelementptr inbounds nuw i8, ptr %5, i64 32
  tail call void @slurm_xfree(ptr noundef nonnull %6) #8
  %7 = tail call ptr @xstrndup(ptr noundef %1, i64 noundef %2) #8
  store ptr %7, ptr %6, align 8
  ret i32 0
}